; Function Attrs: nounwind uwtable
define ptr @l_Std_Time_Internal_Bounded_LE_toNat_x27___rarg(ptr noundef %0, ptr readnone captures(none) %1) local_unnamed_addr #1 {
  %3 = ptrtoint ptr %0 to i64
  %4 = and i64 %3, 1
  %.not.i.i = icmp eq i64 %4, 0
  br i1 %.not.i.i, label %lean_int_lt.exit.i, label %5, !prof !10

5:                                                ; preds = %2
  %6 = and i64 %3, 4294967296
  %.not.i = icmp eq i64 %6, 0
  br i1 %.not.i, label %lean_nat_abs.exit, label %8

lean_int_lt.exit.i:                               ; preds = %2
  %7 = tail call zeroext i1 @lean_int_big_lt(ptr noundef %0, ptr noundef nonnull inttoptr (i64 1 to ptr)) #5
  br i1 %7, label %20, label %24

8:                                                ; preds = %5
  %9 = shl i64 %3, 31
  %10 = ashr i64 %9, 32
  %11 = sub nsw i64 0, %10
  %12 = add nsw i64 %10, 2147483647
  %13 = icmp ult i64 %12, 4294967296
  br i1 %13, label %14, label %18, !prof !9

14:                                               ; preds = %8
  %15 = shl nuw nsw i64 %11, 1
  %16 = or disjoint i64 %15, 1
  %17 = inttoptr i64 %16 to ptr
  br label %lean_int_neg.exit.i

18:                                               ; preds = %8
  %19 = tail call ptr @lean_big_int64_to_int(i64 noundef range(i64 -4611686016279904256, 4611686018427387905) %11) #5
  br label %lean_int_neg.exit.i

20:                                               ; preds = %lean_int_lt.exit.i
  %21 = tail call ptr @lean_int_big_neg(ptr noundef %0) #5
  br label %lean_int_neg.exit.i

lean_int_neg.exit.i:                              ; preds = %20, %18, %14
  %.0.i6.i = phi ptr [ %21, %20 ], [ %17, %14 ], [ %19, %18 ]
  %22 = ptrtoint ptr %.0.i6.i to i64
  %23 = and i64 %22, 1
  %.not.i7.i = icmp eq i64 %23, 0
  br i1 %.not.i7.i, label %lean_int_to_nat.exit.sink.split.i, label %lean_nat_abs.exit

24:                                               ; preds = %lean_int_lt.exit.i
  %.val.i.i = load i32, ptr %0, align 4, !tbaa !4
  %25 = icmp sgt i32 %.val.i.i, 0
  br i1 %25, label %26, label %28, !prof !9

26:                                               ; preds = %24
  %27 = add nuw i32 %.val.i.i, 1
  store i32 %27, ptr %0, align 4, !tbaa !4
  br label %lean_int_to_nat.exit.sink.split.i

28:                                               ; preds = %24
  %.not.i9.i = icmp eq i32 %.val.i.i, 0
  br i1 %.not.i9.i, label %lean_int_to_nat.exit.sink.split.i, label %29

29:                                               ; preds = %28
  tail call void @lean_inc_ref_cold(ptr noundef nonnull %0) #5
  br label %lean_int_to_nat.exit.sink.split.i

lean_int_to_nat.exit.sink.split.i:                ; preds = %29, %28, %26, %lean_int_neg.exit.i
  %.sink.i = phi ptr [ %.0.i6.i, %lean_int_neg.exit.i ], [ %0, %29 ], [ %0, %28 ], [ %0, %26 ]
  %30 = tail call ptr @lean_big_int_to_nat(ptr noundef %.sink.i) #5
  br label %lean_nat_abs.exit

lean_nat_abs.exit:                                ; preds = %5, %lean_int_neg.exit.i, %lean_int_to_nat.exit.sink.split.i
  %.0.i = phi ptr [ %.0.i6.i, %lean_int_neg.exit.i ], [ %0, %5 ], [ %30, %lean_int_to_nat.exit.sink.split.i ]
  ret ptr %.0.i
}